; Function Attrs: nounwind uwtable
define hidden ptr @lexbor_str_append_before(ptr nocapture noundef %0, ptr noundef %1, ptr nocapture noundef readonly %2, i64 noundef %3) local_unnamed_addr #0 {
  %5 = getelementptr inbounds i8, ptr %0, i64 8
  %6 = load i64, ptr %5, align 8
  %7 = sub i64 -2, %3
  %8 = icmp ugt i64 %6, %7
  br i1 %8, label %28, label %9

9:                                                ; preds = %4
  %10 = add i64 %3, 1
  %11 = add i64 %10, %6
  %.val = load ptr, ptr %0, align 8
  %12 = getelementptr i8, ptr %.val, i64 -8
  %.val.val = load i64, ptr %12, align 8
  %13 = icmp ugt i64 %11, %.val.val
  br i1 %13, label %14, label %18

14:                                               ; preds = %9
  %15 = tail call ptr @lexbor_mraw_realloc(ptr noundef %1, ptr noundef nonnull %.val, i64 noundef %11) #15
  %16 = icmp eq ptr %15, null
  br i1 %16, label %28, label %17

17:                                               ; preds = %14
  store ptr %15, ptr %0, align 8
  %.pre = load i64, ptr %5, align 8
  br label %18

18:                                               ; preds = %9, %17
  %19 = phi i64 [ %6, %9 ], [ %.pre, %17 ]
  %20 = phi ptr [ %.val, %9 ], [ %15, %17 ]
  %21 = getelementptr inbounds i8, ptr %20, i64 %19
  %22 = getelementptr inbounds i8, ptr %20, i64 %3
  tail call void @llvm.memmove.p0.p0.i64(ptr align 1 %22, ptr nonnull align 1 %20, i64 %19, i1 false)
  %23 = load ptr, ptr %0, align 8
  tail call void @llvm.memcpy.p0.p0.i64(ptr align 1 %23, ptr align 1 %2, i64 %3, i1 false)
  %24 = load i64, ptr %5, align 8
  %25 = add i64 %24, %3
  store i64 %25, ptr %5, align 8
  %26 = load ptr, ptr %0, align 8
  %27 = getelementptr inbounds i8, ptr %26, i64 %25
  store i8 0, ptr %27, align 1
  br label %28

28:                                               ; preds = %14, %4, %18
  %.0 = phi ptr [ %21, %18 ], [ null, %4 ], [ null, %14 ]
  ret ptr %.0
}